; Function Attrs: mustprogress uwtable
define noundef nonnull align 8 dereferenceable(488) ptr @_ZN6icu_7512ChoiceFormataSERKS0_(ptr noundef nonnull returned align 8 dereferenceable(488) %this, ptr noundef nonnull align 8 dereferenceable(488) %that) local_unnamed_addr #1 align 2 {
entry:
  %cmp.not = icmp eq ptr %this, %that
  br i1 %cmp.not, label %if.end, label %if.then

if.then:                                          ; preds = %entry
  %call = tail call noundef nonnull align 8 dereferenceable(356) ptr @_ZN6icu_7512NumberFormataSERKS0_(ptr noundef nonnull align 8 dereferenceable(356) %this, ptr noundef nonnull align 8 dereferenceable(356) %that)
  %constructorErrorCode = getelementptr inbounds i8, ptr %that, i64 356
  %0 = load i32, ptr %constructorErrorCode, align 4
  %constructorErrorCode2 = getelementptr inbounds i8, ptr %this, i64 356
  store i32 %0, ptr %constructorErrorCode2, align 4
  %msgPattern = getelementptr inbounds i8, ptr %that, i64 360
  %msgPattern3 = getelementptr inbounds i8, ptr %this, i64 360
  %call4 = tail call noundef nonnull align 8 dereferenceable(127) ptr @_ZN6icu_7514MessagePatternaSERKS0_(ptr noundef nonnull align 8 dereferenceable(127) %msgPattern3, ptr noundef nonnull align 8 dereferenceable(127) %msgPattern)
  br label %if.end

if.end:                                           ; preds = %if.then, %entry
  ret ptr %this
}